; Function Attrs: nounwind uwtable
define internal fastcc void @Vec_WecFree(ptr noundef captures(none) %0) unnamed_addr #0 {
  %2 = load i32, ptr %0, align 8
  %3 = icmp sgt i32 %2, 0
  br i1 %3, label %.lr.ph.i, label %._crit_edge.i

.lr.ph.i:                                         ; preds = %1
  %4 = getelementptr inbounds nuw i8, ptr %0, i64 8
  br label %5

5:                                                ; preds = %13, %.lr.ph.i
  %6 = phi i32 [ %2, %.lr.ph.i ], [ %14, %13 ]
  %indvars.iv.i = phi i64 [ 0, %.lr.ph.i ], [ %indvars.iv.next.i, %13 ]
  %7 = load ptr, ptr %4, align 8
  %8 = getelementptr inbounds nuw %struct.Vec_Int_t_, ptr %7, i64 %indvars.iv.i, i32 2
  %9 = load ptr, ptr %8, align 8
  %.not15.i = icmp eq ptr %9, null
  br i1 %.not15.i, label %13, label %10

10:                                               ; preds = %5
  tail call void @free(ptr noundef nonnull %9) #27
  %11 = load ptr, ptr %4, align 8
  %12 = getelementptr inbounds nuw %struct.Vec_Int_t_, ptr %11, i64 %indvars.iv.i, i32 2
  store ptr null, ptr %12, align 8
  %.pre.i = load i32, ptr %0, align 8
  br label %13

13:                                               ; preds = %10, %5
  %14 = phi i32 [ %.pre.i, %10 ], [ %6, %5 ]
  %indvars.iv.next.i = add nuw nsw i64 %indvars.iv.i, 1
  %15 = sext i32 %14 to i64
  %16 = icmp slt i64 %indvars.iv.next.i, %15
  br i1 %16, label %5, label %._crit_edge.i, !llvm.loop !16

._crit_edge.i:                                    ; preds = %13, %1
  %17 = getelementptr inbounds nuw i8, ptr %0, i64 8
  %18 = load ptr, ptr %17, align 8
  %.not.i = icmp eq ptr %18, null
  br i1 %.not.i, label %20, label %19

19:                                               ; preds = %._crit_edge.i
  tail call void @free(ptr noundef nonnull %18) #27
  br label %20

20:                                               ; preds = %._crit_edge.i, %19
  tail call void @free(ptr noundef nonnull %0) #27
  ret void
}